target datalayout = "e-m:e-p270:32:32-p271:32:32-p272:64:64-i64:64-i128:128-f80:128-n8:16:32:64-S128"
target triple = "x86_64-pc-linux-gnu"

%struct.radix_thread_st = type { ptr, ptr, ptr, i64, i64, [8 x ptr], [8 x ptr], ptr, ptr, ptr, i32, i32, i64 }

@.str.44 = private unnamed_addr constant [33 x i8] c"../openssl/test/radix/quic_ops.c\00", align 1
@.str.74 = private unnamed_addr constant [38 x i8] c"../openssl/test/radix/quic_bindings.c\00", align 1
@.str.86 = private unnamed_addr constant [10 x i8] c"NUM_SLOTS\00", align 1
@radix_thread = internal global i32 0, align 4
@.str.93 = private unnamed_addr constant [4 x i8] c"idx\00", align 1
@.str.94 = private unnamed_addr constant [24 x i8] c"*p_ssl = RT()->ssl[idx]\00", align 1
@.str.117 = private unnamed_addr constant [42 x i8] c"expect_slot_ssl(fctx, (0), &((listener)))\00", align 1
@.str.123 = private unnamed_addr constant [5 x i8] c"conn\00", align 1

; Function Attrs: nounwind uwtable
define internal ptr @radix_get_thread() #0 {
  %1 = call ptr @CRYPTO_THREAD_get_local(ptr noundef @radix_thread)
  ret ptr %1
}

; Function Attrs: nounwind uwtable
define internal i32 @expect_slot_ssl(ptr noundef %0, i64 noundef %1, ptr noundef %2) #0 {
  %4 = alloca i32, align 4
  %5 = alloca ptr, align 8
  %6 = alloca i64, align 8
  %7 = alloca ptr, align 8
  store ptr %0, ptr %5, align 8, !tbaa !42
  store i64 %1, ptr %6, align 8, !tbaa !19
  store ptr %2, ptr %7, align 8, !tbaa !90
  %8 = load i64, ptr %6, align 8, !tbaa !19
  %9 = call i32 @test_size_t_lt(ptr noundef @.str.74, i32 noundef 670, ptr noundef @.str.93, ptr noundef @.str.86, i64 noundef %8, i64 noundef 8)
  %10 = icmp ne i32 %9, 0
  br i1 %10, label %11, label %20

11:                                               ; preds = %3
  %12 = call ptr @radix_get_thread()
  %13 = getelementptr inbounds nuw %struct.radix_thread_st, ptr %12, i32 0, i32 6
  %14 = load i64, ptr %6, align 8, !tbaa !19
  %15 = getelementptr inbounds nuw [8 x ptr], ptr %13, i64 0, i64 %14
  %16 = load ptr, ptr %15, align 8, !tbaa !49
  %17 = load ptr, ptr %7, align 8, !tbaa !90
  store ptr %16, ptr %17, align 8, !tbaa !49
  %18 = call i32 @test_ptr(ptr noundef @.str.74, i32 noundef 671, ptr noundef @.str.94, ptr noundef %16)
  %19 = icmp ne i32 %18, 0
  br i1 %19, label %21, label %20

20:                                               ; preds = %11, %3
  store i32 0, ptr %4, align 4
  br label %22

21:                                               ; preds = %11
  store i32 1, ptr %4, align 4
  br label %22

22:                                               ; preds = %21, %20
  %23 = load i32, ptr %4, align 4
  ret i32 %23
}

; Function Attrs: nounwind uwtable
define internal i32 @hf_accept_conn_none(ptr noundef %0) #0 {
  %2 = alloca ptr, align 8
  %3 = alloca i32, align 4
  %4 = alloca ptr, align 8
  %5 = alloca ptr, align 8
  store ptr %0, ptr %2, align 8, !tbaa !42
  call void @llvm.lifetime.start.p0(i64 4, ptr %3) #9
  store i32 0, ptr %3, align 4, !tbaa !9
  call void @llvm.lifetime.start.p0(i64 8, ptr %4) #9
  call void @llvm.lifetime.start.p0(i64 8, ptr %5) #9
  br label %6

6:                                                ; preds = %1
  store ptr null, ptr %4, align 8, !tbaa !49
  %7 = load ptr, ptr %2, align 8, !tbaa !42
  %8 = call i32 @expect_slot_ssl(ptr noundef %7, i64 noundef 0, ptr noundef %4)
  %9 = icmp ne i32 %8, 0
  %10 = zext i1 %9 to i32
  %11 = call i32 @test_true(ptr noundef @.str.44, i32 noundef 370, ptr noundef @.str.117, i32 noundef %10)
  %12 = icmp ne i32 %11, 0
  br i1 %12, label %14, label %13

13:                                               ; preds = %6
  br label %25

14:                                               ; preds = %6
  br label %15

15:                                               ; preds = %14
  br label %16

16:                                               ; preds = %15
  %17 = load ptr, ptr %4, align 8, !tbaa !49
  %18 = call ptr @SSL_accept_connection(ptr noundef %17, i64 noundef 1)
  store ptr %18, ptr %5, align 8, !tbaa !49
  %19 = load ptr, ptr %5, align 8, !tbaa !49
  %20 = call i32 @test_ptr_null(ptr noundef @.str.44, i32 noundef 373, ptr noundef @.str.123, ptr noundef %19)
  %21 = icmp ne i32 %20, 0
  br i1 %21, label %24, label %22

22:                                               ; preds = %16
  %23 = load ptr, ptr %5, align 8, !tbaa !49
  call void @SSL_free(ptr noundef %23)
  br label %25

24:                                               ; preds = %16
  store i32 1, ptr %3, align 4, !tbaa !9
  br label %25

25:                                               ; preds = %24, %22, %13
  %26 = load i32, ptr %3, align 4, !tbaa !9
  call void @llvm.lifetime.end.p0(i64 8, ptr %5) #9
  call void @llvm.lifetime.end.p0(i64 8, ptr %4) #9
  call void @llvm.lifetime.end.p0(i64 4, ptr %3) #9
  ret i32 %26
}