; Function Attrs: nounwind uwtable
define internal range(i32 0, 2) i32 @hf_accept_conn_none(ptr readnone captures(none) %0) #1 {
  %2 = tail call i32 @test_size_t_lt(ptr noundef nonnull @.str.74, i32 noundef 670, ptr noundef nonnull @.str.93, ptr noundef nonnull @.str.86, i64 noundef 0, i64 noundef 8) #12
  %.not.i = icmp eq i32 %2, 0
  br i1 %.not.i, label %expect_slot_ssl.exit, label %3

3:                                                ; preds = %1
  %4 = tail call ptr @CRYPTO_THREAD_get_local(ptr noundef nonnull @radix_thread) #12
  %5 = getelementptr inbounds nuw i8, ptr %4, i64 104
  %6 = load ptr, ptr %5, align 8, !tbaa !49
  %7 = tail call i32 @test_ptr(ptr noundef nonnull @.str.74, i32 noundef 671, ptr noundef nonnull @.str.94, ptr noundef %6) #12
  %.not3.i = icmp ne i32 %7, 0
  %spec.select.i = zext i1 %.not3.i to i32
  br label %expect_slot_ssl.exit

expect_slot_ssl.exit:                             ; preds = %1, %3
  %.04 = phi ptr [ null, %1 ], [ %6, %3 ]
  %.0.i = phi i32 [ 0, %1 ], [ %spec.select.i, %3 ]
  %8 = tail call i32 @test_true(ptr noundef nonnull @.str.44, i32 noundef 370, ptr noundef nonnull @.str.117, i32 noundef %.0.i) #12
  %.not = icmp eq i32 %8, 0
  br i1 %.not, label %13, label %9

9:                                                ; preds = %expect_slot_ssl.exit
  %10 = tail call ptr @SSL_accept_connection(ptr noundef %.04, i64 noundef 1) #12
  %11 = tail call i32 @test_ptr_null(ptr noundef nonnull @.str.44, i32 noundef 373, ptr noundef nonnull @.str.123, ptr noundef %10) #12
  %.not3 = icmp eq i32 %11, 0
  br i1 %.not3, label %12, label %13

12:                                               ; preds = %9
  tail call void @SSL_free(ptr noundef %10) #12
  br label %13

13:                                               ; preds = %9, %expect_slot_ssl.exit, %12
  %.0 = phi i32 [ 0, %12 ], [ 0, %expect_slot_ssl.exit ], [ 1, %9 ]
  ret i32 %.0
}